; Function Attrs: nounwind uwtable
define internal range(i32 -2147483648, 1) i32 @process_command(ptr noundef %0, ptr noundef %1, ptr noundef %2, ptr noundef %3, i32 noundef %4, i32 noundef %5) #1 {
  %7 = tail call i32 @ff_filter_process_command(ptr noundef %0, ptr noundef %1, ptr noundef %2, ptr noundef %3, i32 noundef %4, i32 noundef %5) #10
  %8 = icmp slt i32 %7, 0
  br i1 %8, label %10, label %9

9:                                                ; preds = %6
  tail call fastcc void @get_coeffs(ptr noundef %0)
  br label %10

10:                                               ; preds = %6, %9
  %.0 = phi i32 [ 0, %9 ], [ %7, %6 ]
  ret i32 %.0
}